; Function Attrs: mustprogress nounwind uwtable
define internal noundef zeroext i1 @_ZN12_GLOBAL__N_110MasmParser20parseParenExpressionERPKN4llvm6MCExprERNS1_5SMLocE(ptr noundef nonnull align 8 dereferenceable(1144) %0, ptr noundef nonnull align 8 dereferenceable(8) initializes((0, 8)) %1, ptr noundef nonnull align 8 dereferenceable(8) %2) unnamed_addr #0 align 2 {
  %4 = alloca %"class.llvm::Twine", align 8
  %5 = alloca %"class.llvm::SMLoc", align 8
  store ptr null, ptr %1, align 8
  call void @llvm.lifetime.start.p0(i64 8, ptr nonnull %5)
  store ptr null, ptr %5, align 8
  %6 = load ptr, ptr %0, align 8
  %7 = getelementptr inbounds nuw i8, ptr %6, i64 232
  %8 = load ptr, ptr %7, align 8
  %9 = call noundef zeroext i1 %8(ptr noundef nonnull align 8 dereferenceable(1144) %0, ptr noundef nonnull align 8 dereferenceable(8) %1, ptr noundef nonnull align 8 dereferenceable(8) %5) #24
  call void @llvm.lifetime.end.p0(i64 8, ptr nonnull %5)
  br i1 %9, label %_ZN12_GLOBAL__N_110MasmParser14parseParenExprERPKN4llvm6MCExprERNS1_5SMLocE.exit.thread, label %_ZN12_GLOBAL__N_110MasmParser14parseParenExprERPKN4llvm6MCExprERNS1_5SMLocE.exit

_ZN12_GLOBAL__N_110MasmParser14parseParenExprERPKN4llvm6MCExprERNS1_5SMLocE.exit: ; preds = %3
  %10 = getelementptr inbounds nuw i8, ptr %0, i64 48
  %11 = load ptr, ptr %10, align 8
  %12 = call ptr @_ZNK4llvm8AsmToken9getEndLocEv(ptr noundef nonnull align 8 dereferenceable(40) %11) #24
  store ptr %12, ptr %2, align 8
  call void @llvm.lifetime.start.p0(i64 40, ptr nonnull %4)
  %13 = getelementptr inbounds nuw i8, ptr %4, i64 32
  %14 = getelementptr inbounds nuw i8, ptr %4, i64 33
  store i8 1, ptr %14, align 1
  store ptr @.str.126, ptr %4, align 8
  store i8 3, ptr %13, align 8
  %15 = call noundef zeroext i1 @_ZN4llvm11MCAsmParser10parseTokenENS_8AsmToken9TokenKindERKNS_5TwineE(ptr noundef nonnull align 8 dereferenceable(1144) %0, i32 noundef 18, ptr noundef nonnull align 8 dereferenceable(34) %4) #24
  call void @llvm.lifetime.end.p0(i64 40, ptr nonnull %4)
  br i1 %15, label %_ZN12_GLOBAL__N_110MasmParser14parseParenExprERPKN4llvm6MCExprERNS1_5SMLocE.exit.thread, label %16

16:                                               ; preds = %_ZN12_GLOBAL__N_110MasmParser14parseParenExprERPKN4llvm6MCExprERNS1_5SMLocE.exit
  %17 = call fastcc noundef zeroext i1 @_ZN12_GLOBAL__N_110MasmParser13parseBinOpRHSEjRPKN4llvm6MCExprERNS1_5SMLocE(ptr noundef nonnull align 8 dereferenceable(1144) %0, i32 noundef 1, ptr noundef nonnull align 8 dereferenceable(8) %1, ptr noundef nonnull align 8 dereferenceable(8) %2)
  br label %_ZN12_GLOBAL__N_110MasmParser14parseParenExprERPKN4llvm6MCExprERNS1_5SMLocE.exit.thread

_ZN12_GLOBAL__N_110MasmParser14parseParenExprERPKN4llvm6MCExprERNS1_5SMLocE.exit.thread: ; preds = %3, %16, %_ZN12_GLOBAL__N_110MasmParser14parseParenExprERPKN4llvm6MCExprERNS1_5SMLocE.exit
  %18 = phi i1 [ true, %_ZN12_GLOBAL__N_110MasmParser14parseParenExprERPKN4llvm6MCExprERNS1_5SMLocE.exit ], [ %17, %16 ], [ true, %3 ]
  ret i1 %18
}